; Function Attrs: mustprogress uwtable
define internal noundef nonnull ptr @_ZN7testing8internal15TestFactoryImplIN12_GLOBAL__N_139ParseDeathTest_TestVersionHandling_TestEE10CreateTestEv(ptr nonnull readnone align 8 captures(none) %0) unnamed_addr #3 align 2 personality ptr @__gxx_personality_v0 {
  %2 = tail call noalias noundef nonnull dereferenceable(24) ptr @_Znwm(i64 noundef 24) #31
  invoke void @_ZN7testing4TestC2Ev(ptr noundef nonnull align 8 dereferenceable(24) %2)
          to label %.noexc unwind label %7

.noexc:                                           ; preds = %1
  store ptr getelementptr inbounds nuw inrange(-16, 48) (i8, ptr @_ZTVN12_GLOBAL__N_19ParseTestE, i64 16), ptr %2, align 8, !tbaa !49
  %3 = getelementptr inbounds nuw i8, ptr %2, i64 16
  invoke void @_ZN4absl9FlagSaverC1Ev(ptr noundef nonnull align 8 dereferenceable(8) %3)
          to label %6 unwind label %4

4:                                                ; preds = %.noexc
  %5 = landingpad { ptr, i32 }
          cleanup
  tail call void @_ZN7testing4TestD2Ev(ptr noundef nonnull align 8 dereferenceable(24) %2) #33
  br label %.body

6:                                                ; preds = %.noexc
  store ptr getelementptr inbounds nuw inrange(-16, 48) (i8, ptr @_ZTVN12_GLOBAL__N_139ParseDeathTest_TestVersionHandling_TestE, i64 16), ptr %2, align 8, !tbaa !49
  ret ptr %2

7:                                                ; preds = %1
  %8 = landingpad { ptr, i32 }
          cleanup
  br label %.body

.body:                                            ; preds = %4, %7
  %eh.lpad-body = phi { ptr, i32 } [ %8, %7 ], [ %5, %4 ]
  tail call void @_ZdlPvm(ptr noundef nonnull %2, i64 noundef 24) #32
  resume { ptr, i32 } %eh.lpad-body
}